target datalayout = "e-m:e-p270:32:32-p271:32:32-p272:64:64-i64:64-i128:128-f80:128-n8:16:32:64-S128"
target triple = "x86_64-pc-linux-gnu"

%struct.SharedEncoderDictionary = type { i32, %struct.CompoundDictionary, %struct.ContextualEncoderDictionary, i32 }
%struct.CompoundDictionary = type { i64, i64, [16 x ptr], [16 x ptr], [16 x i64], i64, [16 x ptr] }
%struct.ContextualEncoderDictionary = type { i32, i8, [64 x i8], [64 x ptr], i64, %struct.BrotliEncoderDictionary, ptr }
%struct.BrotliEncoderDictionary = type { ptr, i32, i32, i64, ptr, ptr, ptr, ptr, %struct.BrotliTrie, i32, ptr, ptr, ptr, i64, ptr, i64, ptr, ptr }
%struct.BrotliTrie = type { ptr, i64, i64, %struct.BrotliTrieNode }
%struct.BrotliTrieNode = type { i8, i8, i8, i32, i32 }
%struct.MemoryManager = type { ptr, ptr, ptr }
%struct.ManagedDictionary = type { i32, %struct.MemoryManager, ptr }
%struct.PreparedDictionary = type { i32, i32, i32, i32, i32, i32 }

; Function Attrs: nounwind uwtable
define hidden i64 @BrotliEncoderGetPreparedDictionarySize(ptr noundef %0) #0 {
  %2 = alloca i64, align 8
  %3 = alloca ptr, align 8
  %4 = alloca ptr, align 8
  %5 = alloca i32, align 4
  %6 = alloca i64, align 8
  %7 = alloca ptr, align 8
  %8 = alloca ptr, align 8
  %9 = alloca i32, align 4
  %10 = alloca ptr, align 8
  %11 = alloca ptr, align 8
  %12 = alloca ptr, align 8
  %13 = alloca ptr, align 8
  %14 = alloca i64, align 8
  %15 = alloca i64, align 8
  %16 = alloca i64, align 8
  %17 = alloca ptr, align 8
  %18 = alloca i64, align 8
  %19 = alloca ptr, align 8
  store ptr %0, ptr %3, align 8, !tbaa !102
  call void @llvm.lifetime.start.p0(i64 8, ptr %4) #10
  %20 = load ptr, ptr %3, align 8, !tbaa !102
  store ptr %20, ptr %4, align 8, !tbaa !102
  call void @llvm.lifetime.start.p0(i64 4, ptr %5) #10
  %21 = load ptr, ptr %4, align 8, !tbaa !102
  %22 = load i32, ptr %21, align 4, !tbaa !8
  store i32 %22, ptr %5, align 4, !tbaa !8
  call void @llvm.lifetime.start.p0(i64 8, ptr %6) #10
  store i64 0, ptr %6, align 8, !tbaa !75
  %23 = load i32, ptr %5, align 4, !tbaa !8
  %24 = icmp eq i32 %23, -558043678
  br i1 %24, label %25, label %34

25:                                               ; preds = %1
  call void @llvm.lifetime.start.p0(i64 8, ptr %7) #10
  %26 = load ptr, ptr %4, align 8, !tbaa !102
  store ptr %26, ptr %7, align 8, !tbaa !98
  store i64 40, ptr %6, align 8, !tbaa !75
  %27 = load ptr, ptr %7, align 8, !tbaa !98
  %28 = getelementptr inbounds nuw %struct.ManagedDictionary, ptr %27, i32 0, i32 2
  %29 = load ptr, ptr %28, align 8, !tbaa !100
  %30 = load i32, ptr %29, align 4, !tbaa !8
  store i32 %30, ptr %5, align 4, !tbaa !8
  %31 = load ptr, ptr %7, align 8, !tbaa !98
  %32 = getelementptr inbounds nuw %struct.ManagedDictionary, ptr %31, i32 0, i32 2
  %33 = load ptr, ptr %32, align 8, !tbaa !100
  store ptr %33, ptr %4, align 8, !tbaa !102
  call void @llvm.lifetime.end.p0(i64 8, ptr %7) #10
  br label %34

34:                                               ; preds = %25, %1
  %35 = load i32, ptr %5, align 4, !tbaa !8
  %36 = icmp eq i32 %35, -558043680
  br i1 %36, label %37, label %64

37:                                               ; preds = %34
  call void @llvm.lifetime.start.p0(i64 8, ptr %8) #10
  %38 = load ptr, ptr %4, align 8, !tbaa !102
  store ptr %38, ptr %8, align 8, !tbaa !107
  %39 = load ptr, ptr %8, align 8, !tbaa !107
  %40 = getelementptr inbounds nuw %struct.PreparedDictionary, ptr %39, i32 0, i32 2
  %41 = load i32, ptr %40, align 4, !tbaa !147
  %42 = zext i32 %41 to i64
  %43 = add i64 24, %42
  %44 = load ptr, ptr %8, align 8, !tbaa !107
  %45 = getelementptr inbounds nuw %struct.PreparedDictionary, ptr %44, i32 0, i32 5
  %46 = load i32, ptr %45, align 4, !tbaa !149
  %47 = zext i32 %46 to i64
  %48 = shl i64 4, %47
  %49 = add i64 %43, %48
  %50 = load ptr, ptr %8, align 8, !tbaa !107
  %51 = getelementptr inbounds nuw %struct.PreparedDictionary, ptr %50, i32 0, i32 4
  %52 = load i32, ptr %51, align 4, !tbaa !150
  %53 = zext i32 %52 to i64
  %54 = shl i64 2, %53
  %55 = add i64 %49, %54
  %56 = load ptr, ptr %8, align 8, !tbaa !107
  %57 = getelementptr inbounds nuw %struct.PreparedDictionary, ptr %56, i32 0, i32 1
  %58 = load i32, ptr %57, align 4, !tbaa !151
  %59 = zext i32 %58 to i64
  %60 = mul i64 4, %59
  %61 = add i64 %55, %60
  %62 = load i64, ptr %6, align 8, !tbaa !75
  %63 = add i64 %61, %62
  store i64 %63, ptr %2, align 8
  store i32 1, ptr %9, align 4
  call void @llvm.lifetime.end.p0(i64 8, ptr %8) #10
  br label %218

64:                                               ; preds = %34
  %65 = load i32, ptr %5, align 4, !tbaa !8
  %66 = icmp eq i32 %65, -558043677
  br i1 %66, label %67, label %89

67:                                               ; preds = %64
  call void @llvm.lifetime.start.p0(i64 8, ptr %10) #10
  %68 = load ptr, ptr %4, align 8, !tbaa !102
  store ptr %68, ptr %10, align 8, !tbaa !107
  %69 = load ptr, ptr %10, align 8, !tbaa !107
  %70 = getelementptr inbounds nuw %struct.PreparedDictionary, ptr %69, i32 0, i32 5
  %71 = load i32, ptr %70, align 4, !tbaa !149
  %72 = zext i32 %71 to i64
  %73 = shl i64 4, %72
  %74 = add i64 32, %73
  %75 = load ptr, ptr %10, align 8, !tbaa !107
  %76 = getelementptr inbounds nuw %struct.PreparedDictionary, ptr %75, i32 0, i32 4
  %77 = load i32, ptr %76, align 4, !tbaa !150
  %78 = zext i32 %77 to i64
  %79 = shl i64 2, %78
  %80 = add i64 %74, %79
  %81 = load ptr, ptr %10, align 8, !tbaa !107
  %82 = getelementptr inbounds nuw %struct.PreparedDictionary, ptr %81, i32 0, i32 1
  %83 = load i32, ptr %82, align 4, !tbaa !151
  %84 = zext i32 %83 to i64
  %85 = mul i64 4, %84
  %86 = add i64 %80, %85
  %87 = load i64, ptr %6, align 8, !tbaa !75
  %88 = add i64 %86, %87
  store i64 %88, ptr %2, align 8
  store i32 1, ptr %9, align 4
  call void @llvm.lifetime.end.p0(i64 8, ptr %10) #10
  br label %218

89:                                               ; preds = %64
  %90 = load i32, ptr %5, align 4, !tbaa !8
  %91 = icmp eq i32 %90, -558043679
  br i1 %91, label %92, label %215

92:                                               ; preds = %89
  call void @llvm.lifetime.start.p0(i64 8, ptr %11) #10
  %93 = load ptr, ptr %4, align 8, !tbaa !102
  store ptr %93, ptr %11, align 8, !tbaa !105
  call void @llvm.lifetime.start.p0(i64 8, ptr %12) #10
  %94 = load ptr, ptr %11, align 8, !tbaa !105
  %95 = getelementptr inbounds nuw %struct.SharedEncoderDictionary, ptr %94, i32 0, i32 1
  store ptr %95, ptr %12, align 8, !tbaa !152
  call void @llvm.lifetime.start.p0(i64 8, ptr %13) #10
  %96 = load ptr, ptr %11, align 8, !tbaa !105
  %97 = getelementptr inbounds nuw %struct.SharedEncoderDictionary, ptr %96, i32 0, i32 2
  store ptr %97, ptr %13, align 8, !tbaa !122
  call void @llvm.lifetime.start.p0(i64 8, ptr %14) #10
  store i64 1320, ptr %14, align 8, !tbaa !75
  call void @llvm.lifetime.start.p0(i64 8, ptr %15) #10
  call void @llvm.lifetime.start.p0(i64 8, ptr %16) #10
  call void @llvm.lifetime.start.p0(i64 8, ptr %17) #10
  store i64 0, ptr %15, align 8, !tbaa !75
  br label %98

98:                                               ; preds = %121, %92
  %99 = load i64, ptr %15, align 8, !tbaa !75
  %100 = load ptr, ptr %12, align 8, !tbaa !152
  %101 = getelementptr inbounds nuw %struct.CompoundDictionary, ptr %100, i32 0, i32 5
  %102 = load i64, ptr %101, align 8, !tbaa !154
  %103 = icmp ult i64 %99, %102
  br i1 %103, label %104, label %124

104:                                              ; preds = %98
  call void @llvm.lifetime.start.p0(i64 8, ptr %18) #10
  %105 = load ptr, ptr %12, align 8, !tbaa !152
  %106 = getelementptr inbounds nuw %struct.CompoundDictionary, ptr %105, i32 0, i32 6
  %107 = load i64, ptr %15, align 8, !tbaa !75
  %108 = getelementptr inbounds nuw [16 x ptr], ptr %106, i64 0, i64 %107
  %109 = load ptr, ptr %108, align 8, !tbaa !107
  %110 = call i64 @BrotliEncoderGetPreparedDictionarySize(ptr noundef %109)
  store i64 %110, ptr %18, align 8, !tbaa !75
  %111 = load i64, ptr %18, align 8, !tbaa !75
  %112 = icmp ne i64 %111, 0
  br i1 %112, label %114, label %113

113:                                              ; preds = %104
  store i64 0, ptr %2, align 8
  store i32 1, ptr %9, align 4
  br label %118

114:                                              ; preds = %104
  %115 = load i64, ptr %18, align 8, !tbaa !75
  %116 = load i64, ptr %14, align 8, !tbaa !75
  %117 = add i64 %116, %115
  store i64 %117, ptr %14, align 8, !tbaa !75
  store i32 0, ptr %9, align 4
  br label %118

118:                                              ; preds = %114, %113
  call void @llvm.lifetime.end.p0(i64 8, ptr %18) #10
  %119 = load i32, ptr %9, align 4
  switch i32 %119, label %214 [
    i32 0, label %120
  ]

120:                                              ; preds = %118
  br label %121

121:                                              ; preds = %120
  %122 = load i64, ptr %15, align 8, !tbaa !75
  %123 = add i64 %122, 1
  store i64 %123, ptr %15, align 8, !tbaa !75
  br label %98, !llvm.loop !155

124:                                              ; preds = %98
  %125 = load ptr, ptr %13, align 8, !tbaa !122
  %126 = getelementptr inbounds nuw %struct.ContextualEncoderDictionary, ptr %125, i32 0, i32 0
  %127 = load i32, ptr %126, align 8, !tbaa !156
  %128 = icmp ne i32 %127, 0
  br i1 %128, label %129, label %140

129:                                              ; preds = %124
  %130 = load ptr, ptr %13, align 8, !tbaa !122
  %131 = getelementptr inbounds nuw %struct.ContextualEncoderDictionary, ptr %130, i32 0, i32 4
  %132 = load i64, ptr %131, align 8, !tbaa !157
  store i64 %132, ptr %16, align 8, !tbaa !75
  %133 = load ptr, ptr %13, align 8, !tbaa !122
  %134 = getelementptr inbounds nuw %struct.ContextualEncoderDictionary, ptr %133, i32 0, i32 6
  %135 = load ptr, ptr %134, align 8, !tbaa !158
  store ptr %135, ptr %17, align 8, !tbaa !111
  %136 = load i64, ptr %16, align 8, !tbaa !75
  %137 = mul i64 168, %136
  %138 = load i64, ptr %14, align 8, !tbaa !75
  %139 = add i64 %138, %137
  store i64 %139, ptr %14, align 8, !tbaa !75
  br label %143

140:                                              ; preds = %124
  store i64 1, ptr %16, align 8, !tbaa !75
  %141 = load ptr, ptr %13, align 8, !tbaa !122
  %142 = getelementptr inbounds nuw %struct.ContextualEncoderDictionary, ptr %141, i32 0, i32 5
  store ptr %142, ptr %17, align 8, !tbaa !111
  br label %143

143:                                              ; preds = %140, %129
  store i64 0, ptr %15, align 8, !tbaa !75
  br label %144

144:                                              ; preds = %207, %143
  %145 = load i64, ptr %15, align 8, !tbaa !75
  %146 = load i64, ptr %16, align 8, !tbaa !75
  %147 = icmp ult i64 %145, %146
  br i1 %147, label %148, label %210

148:                                              ; preds = %144
  call void @llvm.lifetime.start.p0(i64 8, ptr %19) #10
  %149 = load ptr, ptr %17, align 8, !tbaa !111
  %150 = load i64, ptr %15, align 8, !tbaa !75
  %151 = getelementptr inbounds nuw %struct.BrotliEncoderDictionary, ptr %149, i64 %150
  store ptr %151, ptr %19, align 8, !tbaa !111
  %152 = load ptr, ptr %19, align 8, !tbaa !111
  %153 = getelementptr inbounds nuw %struct.BrotliEncoderDictionary, ptr %152, i32 0, i32 8
  %154 = getelementptr inbounds nuw %struct.BrotliTrie, ptr %153, i32 0, i32 1
  %155 = load i64, ptr %154, align 8, !tbaa !159
  %156 = mul i64 %155, 12
  %157 = load i64, ptr %14, align 8, !tbaa !75
  %158 = add i64 %157, %156
  store i64 %158, ptr %14, align 8, !tbaa !75
  %159 = load ptr, ptr %19, align 8, !tbaa !111
  %160 = getelementptr inbounds nuw %struct.BrotliEncoderDictionary, ptr %159, i32 0, i32 11
  %161 = load ptr, ptr %160, align 8, !tbaa !160
  %162 = icmp ne ptr %161, null
  br i1 %162, label %163, label %166

163:                                              ; preds = %148
  %164 = load i64, ptr %14, align 8, !tbaa !75
  %165 = add i64 %164, 65536
  store i64 %165, ptr %14, align 8, !tbaa !75
  br label %166

166:                                              ; preds = %163, %148
  %167 = load ptr, ptr %19, align 8, !tbaa !111
  %168 = getelementptr inbounds nuw %struct.BrotliEncoderDictionary, ptr %167, i32 0, i32 12
  %169 = load ptr, ptr %168, align 8, !tbaa !161
  %170 = icmp ne ptr %169, null
  br i1 %170, label %171, label %174

171:                                              ; preds = %166
  %172 = load i64, ptr %14, align 8, !tbaa !75
  %173 = add i64 %172, 32768
  store i64 %173, ptr %14, align 8, !tbaa !75
  br label %174

174:                                              ; preds = %171, %166
  %175 = load ptr, ptr %19, align 8, !tbaa !111
  %176 = getelementptr inbounds nuw %struct.BrotliEncoderDictionary, ptr %175, i32 0, i32 14
  %177 = load ptr, ptr %176, align 8, !tbaa !162
  %178 = icmp ne ptr %177, null
  br i1 %178, label %179, label %186

179:                                              ; preds = %174
  %180 = load ptr, ptr %19, align 8, !tbaa !111
  %181 = getelementptr inbounds nuw %struct.BrotliEncoderDictionary, ptr %180, i32 0, i32 13
  %182 = load i64, ptr %181, align 8, !tbaa !163
  %183 = mul i64 2, %182
  %184 = load i64, ptr %14, align 8, !tbaa !75
  %185 = add i64 %184, %183
  store i64 %185, ptr %14, align 8, !tbaa !75
  br label %186

186:                                              ; preds = %179, %174
  %187 = load ptr, ptr %19, align 8, !tbaa !111
  %188 = getelementptr inbounds nuw %struct.BrotliEncoderDictionary, ptr %187, i32 0, i32 16
  %189 = load ptr, ptr %188, align 8, !tbaa !164
  %190 = icmp ne ptr %189, null
  br i1 %190, label %191, label %198

191:                                              ; preds = %186
  %192 = load ptr, ptr %19, align 8, !tbaa !111
  %193 = getelementptr inbounds nuw %struct.BrotliEncoderDictionary, ptr %192, i32 0, i32 15
  %194 = load i64, ptr %193, align 8, !tbaa !165
  %195 = mul i64 4, %194
  %196 = load i64, ptr %14, align 8, !tbaa !75
  %197 = add i64 %196, %195
  store i64 %197, ptr %14, align 8, !tbaa !75
  br label %198

198:                                              ; preds = %191, %186
  %199 = load ptr, ptr %19, align 8, !tbaa !111
  %200 = getelementptr inbounds nuw %struct.BrotliEncoderDictionary, ptr %199, i32 0, i32 17
  %201 = load ptr, ptr %200, align 8, !tbaa !166
  %202 = icmp ne ptr %201, null
  br i1 %202, label %203, label %206

203:                                              ; preds = %198
  %204 = load i64, ptr %14, align 8, !tbaa !75
  %205 = add i64 %204, 176
  store i64 %205, ptr %14, align 8, !tbaa !75
  br label %206

206:                                              ; preds = %203, %198
  call void @llvm.lifetime.end.p0(i64 8, ptr %19) #10
  br label %207

207:                                              ; preds = %206
  %208 = load i64, ptr %15, align 8, !tbaa !75
  %209 = add i64 %208, 1
  store i64 %209, ptr %15, align 8, !tbaa !75
  br label %144, !llvm.loop !167

210:                                              ; preds = %144
  %211 = load i64, ptr %14, align 8, !tbaa !75
  %212 = load i64, ptr %6, align 8, !tbaa !75
  %213 = add i64 %211, %212
  store i64 %213, ptr %2, align 8
  store i32 1, ptr %9, align 4
  br label %214

214:                                              ; preds = %210, %118
  call void @llvm.lifetime.end.p0(i64 8, ptr %17) #10
  call void @llvm.lifetime.end.p0(i64 8, ptr %16) #10
  call void @llvm.lifetime.end.p0(i64 8, ptr %15) #10
  call void @llvm.lifetime.end.p0(i64 8, ptr %14) #10
  call void @llvm.lifetime.end.p0(i64 8, ptr %13) #10
  call void @llvm.lifetime.end.p0(i64 8, ptr %12) #10
  call void @llvm.lifetime.end.p0(i64 8, ptr %11) #10
  br label %218

215:                                              ; preds = %89
  br label %216

216:                                              ; preds = %215
  br label %217

217:                                              ; preds = %216
  store i64 0, ptr %2, align 8
  store i32 1, ptr %9, align 4
  br label %218

218:                                              ; preds = %217, %214, %67, %37
  call void @llvm.lifetime.end.p0(i64 8, ptr %6) #10
  call void @llvm.lifetime.end.p0(i64 4, ptr %5) #10
  call void @llvm.lifetime.end.p0(i64 8, ptr %4) #10
  %219 = load i64, ptr %2, align 8
  ret i64 %219
}