; Function Attrs: nofree nosync nounwind memory(read, inaccessiblemem: none) uwtable
define hidden i64 @BrotliEncoderGetPreparedDictionarySize(ptr noundef readonly captures(none) %0) local_unnamed_addr #8 {
  %2 = load i32, ptr %0, align 4, !tbaa !59
  %3 = icmp eq i32 %2, -558043678
  br i1 %3, label %4, label %8

4:                                                ; preds = %1
  %5 = getelementptr inbounds nuw i8, ptr %0, i64 32
  %6 = load ptr, ptr %5, align 8, !tbaa !602
  %7 = load i32, ptr %6, align 4, !tbaa !59
  br label %8

8:                                                ; preds = %4, %1
  %.069 = phi i64 [ 40, %4 ], [ 0, %1 ]
  %.068 = phi i32 [ %7, %4 ], [ %2, %1 ]
  %.059 = phi ptr [ %6, %4 ], [ %0, %1 ]
  switch i32 %.068, label %.loopexit [
    i32 -558043680, label %9
    i32 -558043677, label %30
    i32 -558043679, label %47
  ]

9:                                                ; preds = %8
  %10 = getelementptr inbounds nuw i8, ptr %.059, i64 8
  %11 = load i32, ptr %10, align 4, !tbaa !616
  %12 = zext i32 %11 to i64
  %13 = getelementptr inbounds nuw i8, ptr %.059, i64 20
  %14 = load i32, ptr %13, align 4, !tbaa !618
  %15 = zext nneg i32 %14 to i64
  %16 = shl i64 4, %15
  %17 = getelementptr inbounds nuw i8, ptr %.059, i64 16
  %18 = load i32, ptr %17, align 4, !tbaa !619
  %19 = zext nneg i32 %18 to i64
  %20 = shl i64 2, %19
  %21 = getelementptr inbounds nuw i8, ptr %.059, i64 4
  %22 = load i32, ptr %21, align 4, !tbaa !620
  %23 = zext i32 %22 to i64
  %24 = shl nuw nsw i64 %23, 2
  %25 = add nuw nsw i64 %.069, 24
  %26 = add nuw nsw i64 %25, %12
  %27 = add nuw i64 %26, %16
  %28 = add i64 %27, %20
  %29 = add i64 %28, %24
  br label %.loopexit

30:                                               ; preds = %8
  %31 = getelementptr inbounds nuw i8, ptr %.059, i64 20
  %32 = load i32, ptr %31, align 4, !tbaa !618
  %33 = zext nneg i32 %32 to i64
  %34 = shl i64 4, %33
  %35 = getelementptr inbounds nuw i8, ptr %.059, i64 16
  %36 = load i32, ptr %35, align 4, !tbaa !619
  %37 = zext nneg i32 %36 to i64
  %38 = shl i64 2, %37
  %39 = getelementptr inbounds nuw i8, ptr %.059, i64 4
  %40 = load i32, ptr %39, align 4, !tbaa !620
  %41 = zext i32 %40 to i64
  %42 = shl nuw nsw i64 %41, 2
  %43 = add nuw nsw i64 %.069, 32
  %44 = add nuw i64 %43, %34
  %45 = add i64 %44, %38
  %46 = add i64 %45, %42
  br label %.loopexit

47:                                               ; preds = %8
  %48 = getelementptr inbounds nuw i8, ptr %.059, i64 544
  %49 = getelementptr inbounds nuw i8, ptr %.059, i64 408
  %50 = load i64, ptr %49, align 8, !tbaa !621
  %.not89 = icmp eq i64 %50, 0
  br i1 %.not89, label %._crit_edge, label %.lr.ph

.lr.ph:                                           ; preds = %47
  %51 = getelementptr inbounds nuw i8, ptr %.059, i64 416
  br label %52

52:                                               ; preds = %.lr.ph, %56
  %.06282 = phi i64 [ 0, %.lr.ph ], [ %58, %56 ]
  %.06481 = phi i64 [ 1320, %.lr.ph ], [ %57, %56 ]
  %53 = getelementptr inbounds nuw [16 x ptr], ptr %51, i64 0, i64 %.06282
  %54 = load ptr, ptr %53, align 8, !tbaa !612
  %55 = tail call i64 @BrotliEncoderGetPreparedDictionarySize(ptr noundef %54)
  %.not78.not = icmp eq i64 %55, 0
  br i1 %.not78.not, label %.loopexit, label %56

56:                                               ; preds = %52
  %57 = add i64 %55, %.06481
  %58 = add nuw i64 %.06282, 1
  %exitcond.not = icmp eq i64 %58, %50
  br i1 %exitcond.not, label %._crit_edge, label %52, !llvm.loop !622

._crit_edge:                                      ; preds = %56, %47
  %.064.lcssa = phi i64 [ 1320, %47 ], [ %57, %56 ]
  %59 = load i32, ptr %48, align 8, !tbaa !623
  %.not = icmp eq i32 %59, 0
  br i1 %.not, label %.thread, label %61

.thread:                                          ; preds = %._crit_edge
  %60 = getelementptr inbounds nuw i8, ptr %.059, i64 1136
  br label %.lr.ph86.preheader

61:                                               ; preds = %._crit_edge
  %62 = getelementptr inbounds nuw i8, ptr %.059, i64 1128
  %63 = load i64, ptr %62, align 8, !tbaa !624
  %64 = getelementptr inbounds nuw i8, ptr %.059, i64 1304
  %65 = load ptr, ptr %64, align 8, !tbaa !625
  %66 = mul i64 %63, 168
  %67 = add i64 %66, %.064.lcssa
  %.not90 = icmp eq i64 %63, 0
  br i1 %.not90, label %._crit_edge87, label %.lr.ph86.preheader

.lr.ph86.preheader:                               ; preds = %.thread, %61
  %.06098 = phi ptr [ %60, %.thread ], [ %65, %61 ]
  %.06197 = phi i64 [ 1, %.thread ], [ %63, %61 ]
  %.26696 = phi i64 [ %.064.lcssa, %.thread ], [ %67, %61 ]
  br label %.lr.ph86

.lr.ph86:                                         ; preds = %.lr.ph86.preheader, %94
  %.16384 = phi i64 [ %98, %94 ], [ 0, %.lr.ph86.preheader ]
  %.36783 = phi i64 [ %spec.select79, %94 ], [ %.26696, %.lr.ph86.preheader ]
  %68 = getelementptr inbounds nuw %struct.BrotliEncoderDictionary, ptr %.06098, i64 %.16384
  %69 = getelementptr inbounds nuw i8, ptr %68, i64 64
  %70 = load i64, ptr %69, align 8, !tbaa !626
  %71 = mul i64 %70, 12
  %72 = add i64 %71, %.36783
  %73 = getelementptr inbounds nuw i8, ptr %68, i64 112
  %74 = load ptr, ptr %73, align 8, !tbaa !627
  %.not73 = icmp eq ptr %74, null
  %75 = add i64 %72, 65536
  %spec.select = select i1 %.not73, i64 %72, i64 %75
  %76 = getelementptr inbounds nuw i8, ptr %68, i64 120
  %77 = load ptr, ptr %76, align 8, !tbaa !628
  %.not74 = icmp eq ptr %77, null
  %78 = add i64 %spec.select, 32768
  %.5 = select i1 %.not74, i64 %spec.select, i64 %78
  %79 = getelementptr inbounds nuw i8, ptr %68, i64 136
  %80 = load ptr, ptr %79, align 8, !tbaa !629
  %.not75 = icmp eq ptr %80, null
  br i1 %.not75, label %86, label %81

81:                                               ; preds = %.lr.ph86
  %82 = getelementptr inbounds nuw i8, ptr %68, i64 128
  %83 = load i64, ptr %82, align 8, !tbaa !630
  %84 = shl i64 %83, 1
  %85 = add i64 %84, %.5
  br label %86

86:                                               ; preds = %81, %.lr.ph86
  %.6 = phi i64 [ %85, %81 ], [ %.5, %.lr.ph86 ]
  %87 = getelementptr inbounds nuw i8, ptr %68, i64 152
  %88 = load ptr, ptr %87, align 8, !tbaa !631
  %.not76 = icmp eq ptr %88, null
  br i1 %.not76, label %94, label %89

89:                                               ; preds = %86
  %90 = getelementptr inbounds nuw i8, ptr %68, i64 144
  %91 = load i64, ptr %90, align 8, !tbaa !632
  %92 = shl i64 %91, 2
  %93 = add i64 %92, %.6
  br label %94

94:                                               ; preds = %89, %86
  %.7 = phi i64 [ %93, %89 ], [ %.6, %86 ]
  %95 = getelementptr inbounds nuw i8, ptr %68, i64 160
  %96 = load ptr, ptr %95, align 8, !tbaa !633
  %.not77 = icmp eq ptr %96, null
  %97 = add i64 %.7, 176
  %spec.select79 = select i1 %.not77, i64 %.7, i64 %97
  %98 = add nuw i64 %.16384, 1
  %exitcond91.not = icmp eq i64 %98, %.06197
  br i1 %exitcond91.not, label %._crit_edge87, label %.lr.ph86, !llvm.loop !634

._crit_edge87:                                    ; preds = %94, %61
  %.367.lcssa = phi i64 [ %67, %61 ], [ %spec.select79, %94 ]
  %99 = add i64 %.367.lcssa, %.069
  br label %.loopexit

.loopexit:                                        ; preds = %52, %8, %._crit_edge87, %30, %9
  %.0 = phi i64 [ %29, %9 ], [ %46, %30 ], [ %99, %._crit_edge87 ], [ 0, %8 ], [ 0, %52 ]
  ret i64 %.0
}